target datalayout = "e-m:e-p270:32:32-p271:32:32-p272:64:64-i64:64-i128:128-f80:128-n8:16:32:64-S128"
target triple = "x86_64-pc-linux-gnu"

%struct.gz_state = type { %struct.gzFile_s, i32, i32, ptr, i32, i32, ptr, ptr, i32, i32, i64, i32, i32, i32, i32, i64, i32, i32, ptr, %struct.z_stream_s }
%struct.gzFile_s = type { i32, ptr, i64 }
%struct.z_stream_s = type { ptr, i32, i64, ptr, i32, i64, ptr, ptr, ptr, ptr, ptr, i32, i64, i64, i32 }

; Function Attrs: nounwind uwtable
define i32 @MOZ_Z_gzgetc(ptr noundef %0) #0 {
  %2 = alloca i32, align 4
  %3 = alloca ptr, align 8
  %4 = alloca i32, align 4
  %5 = alloca [1 x i8], align 1
  %6 = alloca ptr, align 8
  %7 = alloca i32, align 4
  store ptr %0, ptr %3, align 8, !tbaa !3
  call void @llvm.lifetime.start.p0(i64 4, ptr %4) #8
  call void @llvm.lifetime.start.p0(i64 1, ptr %5) #8
  call void @llvm.lifetime.start.p0(i64 8, ptr %6) #8
  %8 = load ptr, ptr %3, align 8, !tbaa !3
  %9 = icmp eq ptr %8, null
  br i1 %9, label %10, label %11

10:                                               ; preds = %1
  store i32 -1, ptr %2, align 4
  store i32 1, ptr %7, align 4
  br label %65

11:                                               ; preds = %1
  %12 = load ptr, ptr %3, align 8, !tbaa !3
  store ptr %12, ptr %6, align 8, !tbaa !8
  %13 = load ptr, ptr %6, align 8, !tbaa !8
  %14 = getelementptr inbounds nuw %struct.gz_state, ptr %13, i32 0, i32 1
  %15 = load i32, ptr %14, align 8, !tbaa !13
  %16 = icmp ne i32 %15, 7247
  br i1 %16, label %27, label %17

17:                                               ; preds = %11
  %18 = load ptr, ptr %6, align 8, !tbaa !8
  %19 = getelementptr inbounds nuw %struct.gz_state, ptr %18, i32 0, i32 17
  %20 = load i32, ptr %19, align 4, !tbaa !20
  %21 = icmp ne i32 %20, 0
  br i1 %21, label %22, label %28

22:                                               ; preds = %17
  %23 = load ptr, ptr %6, align 8, !tbaa !8
  %24 = getelementptr inbounds nuw %struct.gz_state, ptr %23, i32 0, i32 17
  %25 = load i32, ptr %24, align 4, !tbaa !20
  %26 = icmp ne i32 %25, -5
  br i1 %26, label %27, label %28

27:                                               ; preds = %22, %11
  store i32 -1, ptr %2, align 4
  store i32 1, ptr %7, align 4
  br label %65

28:                                               ; preds = %22, %17
  %29 = load ptr, ptr %6, align 8, !tbaa !8
  %30 = getelementptr inbounds nuw %struct.gz_state, ptr %29, i32 0, i32 0
  %31 = getelementptr inbounds nuw %struct.gzFile_s, ptr %30, i32 0, i32 0
  %32 = load i32, ptr %31, align 8, !tbaa !23
  %33 = icmp ne i32 %32, 0
  br i1 %33, label %34, label %52

34:                                               ; preds = %28
  %35 = load ptr, ptr %6, align 8, !tbaa !8
  %36 = getelementptr inbounds nuw %struct.gz_state, ptr %35, i32 0, i32 0
  %37 = getelementptr inbounds nuw %struct.gzFile_s, ptr %36, i32 0, i32 0
  %38 = load i32, ptr %37, align 8, !tbaa !23
  %39 = add i32 %38, -1
  store i32 %39, ptr %37, align 8, !tbaa !23
  %40 = load ptr, ptr %6, align 8, !tbaa !8
  %41 = getelementptr inbounds nuw %struct.gz_state, ptr %40, i32 0, i32 0
  %42 = getelementptr inbounds nuw %struct.gzFile_s, ptr %41, i32 0, i32 2
  %43 = load i64, ptr %42, align 8, !tbaa !32
  %44 = add nsw i64 %43, 1
  store i64 %44, ptr %42, align 8, !tbaa !32
  %45 = load ptr, ptr %6, align 8, !tbaa !8
  %46 = getelementptr inbounds nuw %struct.gz_state, ptr %45, i32 0, i32 0
  %47 = getelementptr inbounds nuw %struct.gzFile_s, ptr %46, i32 0, i32 1
  %48 = load ptr, ptr %47, align 8, !tbaa !24
  %49 = getelementptr inbounds nuw i8, ptr %48, i32 1
  store ptr %49, ptr %47, align 8, !tbaa !24
  %50 = load i8, ptr %48, align 1, !tbaa !47
  %51 = zext i8 %50 to i32
  store i32 %51, ptr %2, align 4
  store i32 1, ptr %7, align 4
  br label %65

52:                                               ; preds = %28
  %53 = load ptr, ptr %3, align 8, !tbaa !3
  %54 = getelementptr inbounds [1 x i8], ptr %5, i64 0, i64 0
  %55 = call i32 @MOZ_Z_gzread(ptr noundef %53, ptr noundef %54, i32 noundef 1)
  store i32 %55, ptr %4, align 4, !tbaa !9
  %56 = load i32, ptr %4, align 4, !tbaa !9
  %57 = icmp slt i32 %56, 1
  br i1 %57, label %58, label %59

58:                                               ; preds = %52
  br label %63

59:                                               ; preds = %52
  %60 = getelementptr inbounds [1 x i8], ptr %5, i64 0, i64 0
  %61 = load i8, ptr %60, align 1, !tbaa !47
  %62 = zext i8 %61 to i32
  br label %63

63:                                               ; preds = %59, %58
  %64 = phi i32 [ -1, %58 ], [ %62, %59 ]
  store i32 %64, ptr %2, align 4
  store i32 1, ptr %7, align 4
  br label %65

65:                                               ; preds = %63, %34, %27, %10
  call void @llvm.lifetime.end.p0(i64 8, ptr %6) #8
  call void @llvm.lifetime.end.p0(i64 1, ptr %5) #8
  call void @llvm.lifetime.end.p0(i64 4, ptr %4) #8
  %66 = load i32, ptr %2, align 4
  ret i32 %66
}